; ModuleID = '41/1075.cpp'
source_filename = "41/1075.cpp"
target datalayout = "e-m:e-p270:32:32-p271:32:32-p272:64:64-i64:64-f80:128-n8:16:32:64-S128"
target triple = "x86_64-pc-linux-gnu"

%"class.std::ios_base::Init" = type { i8 }
%"class.std::basic_ostream" = type { i32 (...)**, %"class.std::basic_ios" }
%"class.std::basic_ios" = type { %"class.std::ios_base", %"class.std::basic_ostream"*, i8, i8, %"class.std::basic_streambuf"*, %"class.std::ctype"*, %"class.std::num_put"*, %"class.std::num_get"* }
%"class.std::ios_base" = type { i32 (...)**, i64, i64, i32, i32, i32, %"struct.std::ios_base::_Callback_list"*, %"struct.std::ios_base::_Words", [8 x %"struct.std::ios_base::_Words"], i32, %"struct.std::ios_base::_Words"*, %"class.std::locale" }
%"struct.std::ios_base::_Callback_list" = type { %"struct.std::ios_base::_Callback_list"*, void (i32, %"class.std::ios_base"*, i32)*, i32, i32 }
%"struct.std::ios_base::_Words" = type { i8*, i64 }
%"class.std::locale" = type { %"class.std::locale::_Impl"* }
%"class.std::locale::_Impl" = type { i32, %"class.std::locale::facet"**, i64, %"class.std::locale::facet"**, i8** }
%"class.std::locale::facet" = type <{ i32 (...)**, i32, [4 x i8] }>
%"class.std::basic_streambuf" = type { i32 (...)**, i8*, i8*, i8*, i8*, i8*, i8*, %"class.std::locale" }
%"class.std::ctype" = type <{ %"class.std::locale::facet.base", [4 x i8], %struct.__locale_struct*, i8, [7 x i8], i32*, i32*, i16*, i8, [256 x i8], [256 x i8], i8, [6 x i8] }>
%"class.std::locale::facet.base" = type <{ i32 (...)**, i32 }>
%struct.__locale_struct = type { [13 x %struct.__locale_data*], i16*, i32*, i32*, [13 x i8*] }
%struct.__locale_data = type opaque
%"class.std::num_put" = type { %"class.std::locale::facet.base", [4 x i8] }
%"class.std::num_get" = type { %"class.std::locale::facet.base", [4 x i8] }

@_ZStL8__ioinit = internal global %"class.std::ios_base::Init" zeroinitializer, align 1
@__dso_handle = external hidden global i8
@_ZSt4cout = external dso_local global %"class.std::basic_ostream", align 8
@llvm.global_ctors = appending global [1 x { i32, void ()*, i8* }] [{ i32, void ()*, i8* } { i32 65535, void ()* @_GLOBAL__sub_I_1075.cpp, i8* null }]

; Function Attrs: noinline uwtable
define internal void @__cxx_global_var_init() #0 section ".text.startup" {
  call void @_ZNSt8ios_base4InitC1Ev(%"class.std::ios_base::Init"* @_ZStL8__ioinit)
  %1 = call i32 @__cxa_atexit(void (i8*)* bitcast (void (%"class.std::ios_base::Init"*)* @_ZNSt8ios_base4InitD1Ev to void (i8*)*), i8* getelementptr inbounds (%"class.std::ios_base::Init", %"class.std::ios_base::Init"* @_ZStL8__ioinit, i32 0, i32 0), i8* @__dso_handle) #3
  ret void
}

declare dso_local void @_ZNSt8ios_base4InitC1Ev(%"class.std::ios_base::Init"*) unnamed_addr #1

; Function Attrs: nounwind
declare dso_local void @_ZNSt8ios_base4InitD1Ev(%"class.std::ios_base::Init"*) unnamed_addr #2

; Function Attrs: nounwind
declare dso_local i32 @__cxa_atexit(void (i8*)*, i8*, i8*) #3

; Function Attrs: noinline norecurse uwtable
define dso_local i32 @main() #4 {
  %1 = alloca i32, align 4
  %2 = alloca i32, align 4
  %3 = alloca i32, align 4
  %4 = alloca i32, align 4
  %5 = alloca i32, align 4
  %6 = alloca i32, align 4
  store i32 0, i32* %1, align 4
  store i32 1, i32* %2, align 4
  br label %7

7:                                                ; preds = %201, %0
  %8 = load i32, i32* %2, align 4
  %9 = icmp sle i32 %8, 5
  br i1 %9, label %10, label %204

10:                                               ; preds = %7
  store i32 1, i32* %3, align 4
  br label %11

11:                                               ; preds = %197, %10
  %12 = load i32, i32* %3, align 4
  %13 = icmp sle i32 %12, 5
  br i1 %13, label %14, label %200

14:                                               ; preds = %11
  %15 = load i32, i32* %3, align 4
  %16 = load i32, i32* %2, align 4
  %17 = icmp eq i32 %15, %16
  br i1 %17, label %18, label %19

18:                                               ; preds = %14
  br label %197

19:                                               ; preds = %14
  store i32 1, i32* %4, align 4
  br label %20

20:                                               ; preds = %193, %19
  %21 = load i32, i32* %4, align 4
  %22 = icmp sle i32 %21, 5
  br i1 %22, label %23, label %196

23:                                               ; preds = %20
  %24 = load i32, i32* %4, align 4
  %25 = load i32, i32* %2, align 4
  %26 = icmp eq i32 %24, %25
  br i1 %26, label %31, label %27

27:                                               ; preds = %23
  %28 = load i32, i32* %4, align 4
  %29 = load i32, i32* %3, align 4
  %30 = icmp eq i32 %28, %29
  br i1 %30, label %31, label %32

31:                                               ; preds = %27, %23
  br label %193

32:                                               ; preds = %27
  store i32 1, i32* %5, align 4
  br label %33

33:                                               ; preds = %189, %32
  %34 = load i32, i32* %5, align 4
  %35 = icmp sle i32 %34, 5
  br i1 %35, label %36, label %192

36:                                               ; preds = %33
  %37 = load i32, i32* %5, align 4
  %38 = load i32, i32* %2, align 4
  %39 = icmp eq i32 %37, %38
  br i1 %39, label %48, label %40

40:                                               ; preds = %36
  %41 = load i32, i32* %5, align 4
  %42 = load i32, i32* %3, align 4
  %43 = icmp eq i32 %41, %42
  br i1 %43, label %48, label %44

44:                                               ; preds = %40
  %45 = load i32, i32* %5, align 4
  %46 = load i32, i32* %4, align 4
  %47 = icmp eq i32 %45, %46
  br i1 %47, label %48, label %49

48:                                               ; preds = %44, %40, %36
  br label %189

49:                                               ; preds = %44
  store i32 1, i32* %6, align 4
  br label %50

50:                                               ; preds = %185, %49
  %51 = load i32, i32* %6, align 4
  %52 = icmp sle i32 %51, 5
  br i1 %52, label %53, label %188

53:                                               ; preds = %50
  %54 = load i32, i32* %6, align 4
  %55 = load i32, i32* %2, align 4
  %56 = icmp eq i32 %54, %55
  br i1 %56, label %75, label %57

57:                                               ; preds = %53
  %58 = load i32, i32* %6, align 4
  %59 = load i32, i32* %3, align 4
  %60 = icmp eq i32 %58, %59
  br i1 %60, label %75, label %61

61:                                               ; preds = %57
  %62 = load i32, i32* %6, align 4
  %63 = load i32, i32* %4, align 4
  %64 = icmp eq i32 %62, %63
  br i1 %64, label %75, label %65

65:                                               ; preds = %61
  %66 = load i32, i32* %6, align 4
  %67 = load i32, i32* %5, align 4
  %68 = icmp eq i32 %66, %67
  br i1 %68, label %75, label %69

69:                                               ; preds = %65
  %70 = load i32, i32* %6, align 4
  %71 = icmp eq i32 %70, 2
  br i1 %71, label %75, label %72

72:                                               ; preds = %69
  %73 = load i32, i32* %6, align 4
  %74 = icmp eq i32 %73, 3
  br i1 %74, label %75, label %76

75:                                               ; preds = %72, %69, %65, %61, %57, %53
  br label %185

76:                                               ; preds = %72
  %77 = load i32, i32* %4, align 4
  %78 = icmp eq i32 %77, 1
  br i1 %78, label %79, label %113

79:                                               ; preds = %76
  %80 = load i32, i32* %2, align 4
  %81 = icmp eq i32 %80, 5
  br i1 %81, label %82, label %113

82:                                               ; preds = %79
  %83 = load i32, i32* %3, align 4
  %84 = icmp eq i32 %83, 2
  br i1 %84, label %85, label %113

85:                                               ; preds = %82
  %86 = load i32, i32* %6, align 4
  %87 = icmp eq i32 %86, 1
  %88 = zext i1 %87 to i32
  %89 = load i32, i32* %4, align 4
  %90 = icmp ne i32 %89, 1
  %91 = zext i1 %90 to i32
  %92 = add nsw i32 %88, %91
  %93 = load i32, i32* %5, align 4
  %94 = icmp eq i32 %93, 1
  %95 = zext i1 %94 to i32
  %96 = add nsw i32 %92, %95
  %97 = icmp eq i32 %96, 0
  br i1 %97, label %98, label %113

98:                                               ; preds = %85
  %99 = load i32, i32* %2, align 4
  %100 = call dereferenceable(272) %"class.std::basic_ostream"* @_ZNSolsEi(%"class.std::basic_ostream"* @_ZSt4cout, i32 %99)
  %101 = call dereferenceable(272) %"class.std::basic_ostream"* @_ZStlsISt11char_traitsIcEERSt13basic_ostreamIcT_ES5_c(%"class.std::basic_ostream"* dereferenceable(272) %100, i8 signext 32)
  %102 = load i32, i32* %3, align 4
  %103 = call dereferenceable(272) %"class.std::basic_ostream"* @_ZNSolsEi(%"class.std::basic_ostream"* %101, i32 %102)
  %104 = call dereferenceable(272) %"class.std::basic_ostream"* @_ZStlsISt11char_traitsIcEERSt13basic_ostreamIcT_ES5_c(%"class.std::basic_ostream"* dereferenceable(272) %103, i8 signext 32)
  %105 = load i32, i32* %4, align 4
  %106 = call dereferenceable(272) %"class.std::basic_ostream"* @_ZNSolsEi(%"class.std::basic_ostream"* %104, i32 %105)
  %107 = call dereferenceable(272) %"class.std::basic_ostream"* @_ZStlsISt11char_traitsIcEERSt13basic_ostreamIcT_ES5_c(%"class.std::basic_ostream"* dereferenceable(272) %106, i8 signext 32)
  %108 = load i32, i32* %5, align 4
  %109 = call dereferenceable(272) %"class.std::basic_ostream"* @_ZNSolsEi(%"class.std::basic_ostream"* %107, i32 %108)
  %110 = call dereferenceable(272) %"class.std::basic_ostream"* @_ZStlsISt11char_traitsIcEERSt13basic_ostreamIcT_ES5_c(%"class.std::basic_ostream"* dereferenceable(272) %109, i8 signext 32)
  %111 = load i32, i32* %6, align 4
  %112 = call dereferenceable(272) %"class.std::basic_ostream"* @_ZNSolsEi(%"class.std::basic_ostream"* %110, i32 %111)
  br label %113

113:                                              ; preds = %98, %85, %82, %79, %76
  %114 = load i32, i32* %5, align 4
  %115 = icmp eq i32 %114, 1
  br i1 %115, label %116, label %147

116:                                              ; preds = %113
  %117 = load i32, i32* %3, align 4
  %118 = icmp eq i32 %117, 2
  br i1 %118, label %119, label %147

119:                                              ; preds = %116
  %120 = load i32, i32* %6, align 4
  %121 = icmp eq i32 %120, 1
  %122 = zext i1 %121 to i32
  %123 = load i32, i32* %2, align 4
  %124 = icmp eq i32 %123, 5
  %125 = zext i1 %124 to i32
  %126 = add nsw i32 %122, %125
  %127 = load i32, i32* %5, align 4
  %128 = icmp eq i32 %127, 1
  %129 = zext i1 %128 to i32
  %130 = add nsw i32 %126, %129
  %131 = icmp eq i32 %130, 0
  br i1 %131, label %132, label %147

132:                                              ; preds = %119
  %133 = load i32, i32* %2, align 4
  %134 = call dereferenceable(272) %"class.std::basic_ostream"* @_ZNSolsEi(%"class.std::basic_ostream"* @_ZSt4cout, i32 %133)
  %135 = call dereferenceable(272) %"class.std::basic_ostream"* @_ZStlsISt11char_traitsIcEERSt13basic_ostreamIcT_ES5_c(%"class.std::basic_ostream"* dereferenceable(272) %134, i8 signext 32)
  %136 = load i32, i32* %3, align 4
  %137 = call dereferenceable(272) %"class.std::basic_ostream"* @_ZNSolsEi(%"class.std::basic_ostream"* %135, i32 %136)
  %138 = call dereferenceable(272) %"class.std::basic_ostream"* @_ZStlsISt11char_traitsIcEERSt13basic_ostreamIcT_ES5_c(%"class.std::basic_ostream"* dereferenceable(272) %137, i8 signext 32)
  %139 = load i32, i32* %4, align 4
  %140 = call dereferenceable(272) %"class.std::basic_ostream"* @_ZNSolsEi(%"class.std::basic_ostream"* %138, i32 %139)
  %141 = call dereferenceable(272) %"class.std::basic_ostream"* @_ZStlsISt11char_traitsIcEERSt13basic_ostreamIcT_ES5_c(%"class.std::basic_ostream"* dereferenceable(272) %140, i8 signext 32)
  %142 = load i32, i32* %5, align 4
  %143 = call dereferenceable(272) %"class.std::basic_ostream"* @_ZNSolsEi(%"class.std::basic_ostream"* %141, i32 %142)
  %144 = call dereferenceable(272) %"class.std::basic_ostream"* @_ZStlsISt11char_traitsIcEERSt13basic_ostreamIcT_ES5_c(%"class.std::basic_ostream"* dereferenceable(272) %143, i8 signext 32)
  %145 = load i32, i32* %6, align 4
  %146 = call dereferenceable(272) %"class.std::basic_ostream"* @_ZNSolsEi(%"class.std::basic_ostream"* %144, i32 %145)
  br label %147

147:                                              ; preds = %132, %119, %116, %113
  %148 = load i32, i32* %5, align 4
  %149 = icmp eq i32 %148, 1
  br i1 %149, label %150, label %184

150:                                              ; preds = %147
  %151 = load i32, i32* %4, align 4
  %152 = icmp eq i32 %151, 2
  br i1 %152, label %153, label %184

153:                                              ; preds = %150
  %154 = load i32, i32* %2, align 4
  %155 = icmp eq i32 %154, 5
  br i1 %155, label %156, label %184

156:                                              ; preds = %153
  %157 = load i32, i32* %6, align 4
  %158 = icmp eq i32 %157, 1
  %159 = zext i1 %158 to i32
  %160 = load i32, i32* %3, align 4
  %161 = icmp eq i32 %160, 2
  %162 = zext i1 %161 to i32
  %163 = add nsw i32 %159, %162
  %164 = load i32, i32* %5, align 4
  %165 = icmp eq i32 %164, 1
  %166 = zext i1 %165 to i32
  %167 = add nsw i32 %163, %166
  %168 = icmp eq i32 %167, 0
  br i1 %168, label %169, label %184

169:                                              ; preds = %156
  %170 = load i32, i32* %2, align 4
  %171 = call dereferenceable(272) %"class.std::basic_ostream"* @_ZNSolsEi(%"class.std::basic_ostream"* @_ZSt4cout, i32 %170)
  %172 = call dereferenceable(272) %"class.std::basic_ostream"* @_ZStlsISt11char_traitsIcEERSt13basic_ostreamIcT_ES5_c(%"class.std::basic_ostream"* dereferenceable(272) %171, i8 signext 32)
  %173 = load i32, i32* %3, align 4
  %174 = call dereferenceable(272) %"class.std::basic_ostream"* @_ZNSolsEi(%"class.std::basic_ostream"* %172, i32 %173)
  %175 = call dereferenceable(272) %"class.std::basic_ostream"* @_ZStlsISt11char_traitsIcEERSt13basic_ostreamIcT_ES5_c(%"class.std::basic_ostream"* dereferenceable(272) %174, i8 signext 32)
  %176 = load i32, i32* %4, align 4
  %177 = call dereferenceable(272) %"class.std::basic_ostream"* @_ZNSolsEi(%"class.std::basic_ostream"* %175, i32 %176)
  %178 = call dereferenceable(272) %"class.std::basic_ostream"* @_ZStlsISt11char_traitsIcEERSt13basic_ostreamIcT_ES5_c(%"class.std::basic_ostream"* dereferenceable(272) %177, i8 signext 32)
  %179 = load i32, i32* %5, align 4
  %180 = call dereferenceable(272) %"class.std::basic_ostream"* @_ZNSolsEi(%"class.std::basic_ostream"* %178, i32 %179)
  %181 = call dereferenceable(272) %"class.std::basic_ostream"* @_ZStlsISt11char_traitsIcEERSt13basic_ostreamIcT_ES5_c(%"class.std::basic_ostream"* dereferenceable(272) %180, i8 signext 32)
  %182 = load i32, i32* %6, align 4
  %183 = call dereferenceable(272) %"class.std::basic_ostream"* @_ZNSolsEi(%"class.std::basic_ostream"* %181, i32 %182)
  br label %184

184:                                              ; preds = %169, %156, %153, %150, %147
  br label %185

185:                                              ; preds = %184, %75
  %186 = load i32, i32* %6, align 4
  %187 = add nsw i32 %186, 1
  store i32 %187, i32* %6, align 4
  br label %50

188:                                              ; preds = %50
  br label %189

189:                                              ; preds = %188, %48
  %190 = load i32, i32* %5, align 4
  %191 = add nsw i32 %190, 1
  store i32 %191, i32* %5, align 4
  br label %33

192:                                              ; preds = %33
  br label %193

193:                                              ; preds = %192, %31
  %194 = load i32, i32* %4, align 4
  %195 = add nsw i32 %194, 1
  store i32 %195, i32* %4, align 4
  br label %20

196:                                              ; preds = %20
  br label %197

197:                                              ; preds = %196, %18
  %198 = load i32, i32* %3, align 4
  %199 = add nsw i32 %198, 1
  store i32 %199, i32* %3, align 4
  br label %11

200:                                              ; preds = %11
  br label %201

201:                                              ; preds = %200
  %202 = load i32, i32* %2, align 4
  %203 = add nsw i32 %202, 1
  store i32 %203, i32* %2, align 4
  br label %7

204:                                              ; preds = %7
  %205 = load i32, i32* %1, align 4
  ret i32 %205
}

declare dso_local dereferenceable(272) %"class.std::basic_ostream"* @_ZStlsISt11char_traitsIcEERSt13basic_ostreamIcT_ES5_c(%"class.std::basic_ostream"* dereferenceable(272), i8 signext) #1

declare dso_local dereferenceable(272) %"class.std::basic_ostream"* @_ZNSolsEi(%"class.std::basic_ostream"*, i32) #1

; Function Attrs: noinline uwtable
define internal void @_GLOBAL__sub_I_1075.cpp() #0 section ".text.startup" {
  call void @__cxx_global_var_init()
  ret void
}


!llvm.module.flags = !{!0}
!llvm.ident = !{!1}

!0 = !{i32 1, !"wchar_size", i32 4}
!1 = !{!"clang version 10.0.0-4ubuntu1 "}
